target datalayout = "e-m:e-p270:32:32-p271:32:32-p272:64:64-i64:64-i128:128-f80:128-n8:16:32:64-S128"
target triple = "x86_64-pc-linux-gnu"

@alnum = internal constant [63 x i8] c"ABCDEFGHIJKLMNOPQRSTUVWXYZabcdefghijklmnopqrstuvwxyz0123456789\00", align 16

; Function Attrs: nounwind uwtable
define dso_local i32 @Curl_rand_alnum(ptr noundef %0, ptr noundef %1, i64 noundef %2) #0 {
  %4 = alloca i32, align 4
  %5 = alloca ptr, align 8
  %6 = alloca ptr, align 8
  %7 = alloca i64, align 8
  %8 = alloca i32, align 4
  %9 = alloca i32, align 4
  %10 = alloca i32, align 4
  store ptr %0, ptr %5, align 8
  store ptr %1, ptr %6, align 8
  store i64 %2, ptr %7, align 8
  store i32 0, ptr %8, align 4
  store i32 62, ptr %9, align 4
  br label %11

11:                                               ; preds = %3
  br label %12

12:                                               ; preds = %11
  %13 = load i64, ptr %7, align 8
  %14 = add i64 %13, -1
  store i64 %14, ptr %7, align 8
  br label %15

15:                                               ; preds = %30, %12
  %16 = load i64, ptr %7, align 8
  %17 = icmp ne i64 %16, 0
  br i1 %17, label %18, label %40

18:                                               ; preds = %15
  br label %19

19:                                               ; preds = %27, %18
  %20 = load ptr, ptr %5, align 8
  %21 = call i32 @randit(ptr noundef %20, ptr noundef %10)
  store i32 %21, ptr %8, align 4
  %22 = load i32, ptr %8, align 4
  %23 = icmp ne i32 %22, 0
  br i1 %23, label %24, label %26

24:                                               ; preds = %19
  %25 = load i32, ptr %8, align 4
  store i32 %25, ptr %4, align 4
  br label %43

26:                                               ; preds = %19
  br label %27

27:                                               ; preds = %26
  %28 = load i32, ptr %10, align 4
  %29 = icmp uge i32 %28, -4
  br i1 %29, label %19, label %30, !llvm.loop !8

30:                                               ; preds = %27
  %31 = load i32, ptr %10, align 4
  %32 = urem i32 %31, 62
  %33 = zext i32 %32 to i64
  %34 = getelementptr inbounds [63 x i8], ptr @alnum, i64 0, i64 %33
  %35 = load i8, ptr %34, align 1
  %36 = load ptr, ptr %6, align 8
  %37 = getelementptr inbounds i8, ptr %36, i32 1
  store ptr %37, ptr %6, align 8
  store i8 %35, ptr %36, align 1
  %38 = load i64, ptr %7, align 8
  %39 = add i64 %38, -1
  store i64 %39, ptr %7, align 8
  br label %15, !llvm.loop !9

40:                                               ; preds = %15
  %41 = load ptr, ptr %6, align 8
  store i8 0, ptr %41, align 1
  %42 = load i32, ptr %8, align 4
  store i32 %42, ptr %4, align 4
  br label %43

43:                                               ; preds = %40, %24
  %44 = load i32, ptr %4, align 4
  ret i32 %44
}