; Function Attrs: nounwind uwtable
define dso_local range(i32 5, 4) i32 @Curl_rand_alnum(ptr noundef %0, ptr noundef writeonly captures(none) %1, i64 noundef %2) local_unnamed_addr #0 {
  %4 = alloca i32, align 4
  %.01018 = add i64 %2, -1
  %.not19 = icmp eq i64 %.01018, 0
  br i1 %.not19, label %._crit_edge, label %.preheader

.preheader:                                       ; preds = %3, %10
  %.01021 = phi i64 [ %.010, %10 ], [ %.01018, %3 ]
  %.01120 = phi ptr [ %15, %10 ], [ %1, %3 ]
  br label %5

5:                                                ; preds = %.preheader, %7
  %6 = call fastcc i32 @randit(ptr noundef %0, ptr noundef %4)
  %.not14 = icmp eq i32 %6, 0
  br i1 %.not14, label %7, label %.loopexit

7:                                                ; preds = %5
  %8 = load i32, ptr %4, align 4
  %9 = icmp ugt i32 %8, -5
  br i1 %9, label %5, label %10, !llvm.loop !8

10:                                               ; preds = %7
  %11 = urem i32 %8, 62
  %12 = zext nneg i32 %11 to i64
  %13 = getelementptr inbounds nuw [63 x i8], ptr @alnum, i64 0, i64 %12
  %14 = load i8, ptr %13, align 1
  %15 = getelementptr inbounds nuw i8, ptr %.01120, i64 1
  store i8 %14, ptr %.01120, align 1
  %.010 = add i64 %.01021, -1
  %.not = icmp eq i64 %.010, 0
  br i1 %.not, label %._crit_edge, label %.preheader, !llvm.loop !9

._crit_edge:                                      ; preds = %10, %3
  %.011.lcssa = phi ptr [ %1, %3 ], [ %15, %10 ]
  store i8 0, ptr %.011.lcssa, align 1
  br label %.loopexit

.loopexit:                                        ; preds = %5, %._crit_edge
  %.0 = phi i32 [ 0, %._crit_edge ], [ %6, %5 ]
  ret i32 %.0
}